; Function Attrs: mustprogress uwtable
define noundef double @_ZNK8QuantLib27AnalyticDoubleBarrierEngine10underlyingEv(ptr nocapture noundef nonnull readonly align 8 dereferenceable(452) %this) local_unnamed_addr #8 align 2 {
entry:
  %process_ = getelementptr inbounds nuw i8, ptr %this, i64 368
  %0 = load ptr, ptr %process_, align 8, !tbaa !39
  %cmp.not.i = icmp eq ptr %0, null
  br i1 %cmp.not.i, label %cond.false.i, label %_ZNK5boost10shared_ptrIN8QuantLib30GeneralizedBlackScholesProcessEEptEv.exit, !prof !86

cond.false.i:                                     ; preds = %entry
  tail call void @_ZN5boost16assertion_failedEPKcS1_S1_l(ptr noundef nonnull @.str.21, ptr noundef nonnull @__PRETTY_FUNCTION__._ZNK5boost10shared_ptrIN8QuantLib30GeneralizedBlackScholesProcessEEptEv, ptr noundef nonnull @.str.22, i64 noundef 784)
  %.pre.i = load ptr, ptr %process_, align 8, !tbaa !39
  br label %_ZNK5boost10shared_ptrIN8QuantLib30GeneralizedBlackScholesProcessEEptEv.exit

_ZNK5boost10shared_ptrIN8QuantLib30GeneralizedBlackScholesProcessEEptEv.exit: ; preds = %entry, %cond.false.i
  %1 = phi ptr [ %0, %entry ], [ %.pre.i, %cond.false.i ]
  %vtable = load ptr, ptr %1, align 8, !tbaa !35
  %vfn = getelementptr inbounds i8, ptr %vtable, i64 120
  %2 = load ptr, ptr %vfn, align 8
  %call2 = tail call noundef double %2(ptr noundef nonnull align 8 dereferenceable(250) %1)
  ret double %call2
}